
_middle:     file format elf32-i386


Disassembly of section .text:

00000000 <main>:
#define O_CREATE  0x200


int
main(int argc, char* argv[])
{
   0:	8d 4c 24 04          	lea    0x4(%esp),%ecx
   4:	83 e4 f0             	and    $0xfffffff0,%esp
   7:	ff 71 fc             	pushl  -0x4(%ecx)
   a:	55                   	push   %ebp
   b:	89 e5                	mov    %esp,%ebp
   d:	57                   	push   %edi
   e:	56                   	push   %esi
   f:	53                   	push   %ebx
  10:	51                   	push   %ecx
  11:	81 ec f8 07 00 00    	sub    $0x7f8,%esp
    if(argc != 8) {
  17:	83 39 08             	cmpl   $0x8,(%ecx)
#define O_CREATE  0x200


int
main(int argc, char* argv[])
{
  1a:	8b 71 04             	mov    0x4(%ecx),%esi
    if(argc != 8) {
  1d:	74 13                	je     32 <main+0x32>
        printf(1, "please insert exactly 7 numbers \n");
  1f:	57                   	push   %edi
  20:	57                   	push   %edi
  21:	68 60 08 00 00       	push   $0x860
  26:	6a 01                	push   $0x1
  28:	e8 13 05 00 00       	call   540 <printf>
        exit();
  2d:	e8 b0 03 00 00       	call   3e2 <exit>
  32:	31 db                	xor    %ebx,%ebx
  34:	8d 74 26 00          	lea    0x0(%esi,%eiz,1),%esi
    }

    int array[7], i, j, temp, num = 7;
    for(i = 0; i < 7; i++){
        array[i] = atoi(argv[i+1]);
  38:	83 ec 0c             	sub    $0xc,%esp
  3b:	ff 74 9e 04          	pushl  0x4(%esi,%ebx,4)
  3f:	e8 2c 03 00 00       	call   370 <atoi>
  44:	89 84 9d fc f7 ff ff 	mov    %eax,-0x804(%ebp,%ebx,4)
        printf(1, "please insert exactly 7 numbers \n");
        exit();
    }

    int array[7], i, j, temp, num = 7;
    for(i = 0; i < 7; i++){
  4b:	83 c3 01             	add    $0x1,%ebx
  4e:	83 c4 10             	add    $0x10,%esp
  51:	83 fb 07             	cmp    $0x7,%ebx
  54:	75 e2                	jne    38 <main+0x38>
  56:	bb 06 00 00 00       	mov    $0x6,%ebx
  5b:	90                   	nop
  5c:	8d 74 26 00          	lea    0x0(%esi,%eiz,1),%esi
  60:	31 c0                	xor    %eax,%eax
        array[i] = atoi(argv[i+1]);
    }

    for (i = 0; i < num; i++)
    {
        for (j = 0; j < (num - i - 1); j++)
  62:	39 d8                	cmp    %ebx,%eax
  64:	7d 27                	jge    8d <main+0x8d>
        {
            if (array[j] > array[j + 1])
  66:	8b 94 85 fc f7 ff ff 	mov    -0x804(%ebp,%eax,4),%edx
  6d:	83 c0 01             	add    $0x1,%eax
  70:	8b 8c 85 fc f7 ff ff 	mov    -0x804(%ebp,%eax,4),%ecx
  77:	39 ca                	cmp    %ecx,%edx
  79:	7e e7                	jle    62 <main+0x62>
        array[i] = atoi(argv[i+1]);
    }

    for (i = 0; i < num; i++)
    {
        for (j = 0; j < (num - i - 1); j++)
  7b:	39 d8                	cmp    %ebx,%eax
        {
            if (array[j] > array[j + 1])
            {
                temp = array[j];
                array[j] = array[j + 1];
  7d:	89 8c 85 f8 f7 ff ff 	mov    %ecx,-0x808(%ebp,%eax,4)
                array[j + 1] = temp;
  84:	89 94 85 fc f7 ff ff 	mov    %edx,-0x804(%ebp,%eax,4)
        array[i] = atoi(argv[i+1]);
    }

    for (i = 0; i < num; i++)
    {
        for (j = 0; j < (num - i - 1); j++)
  8b:	7c d9                	jl     66 <main+0x66>
  8d:	83 eb 01             	sub    $0x1,%ebx
    int array[7], i, j, temp, num = 7;
    for(i = 0; i < 7; i++){
        array[i] = atoi(argv[i+1]);
    }

    for (i = 0; i < num; i++)
  90:	83 fb ff             	cmp    $0xffffffff,%ebx
  93:	75 cb                	jne    60 <main+0x60>
            }
        }
    }

    char t, midInverse[1000];
    int cnt = 0, mid = array[3];
  95:	8b 8d 08 f8 ff ff    	mov    -0x7f8(%ebp),%ecx
    while(mid != 0) {
  9b:	85 c9                	test   %ecx,%ecx
  9d:	0f 84 e8 00 00 00    	je     18b <main+0x18b>
  a3:	31 db                	xor    %ebx,%ebx
        t = (mid % 10) + '0';
        midInverse[cnt] = t;
  a5:	be 67 66 66 66       	mov    $0x66666667,%esi
  aa:	eb 06                	jmp    b2 <main+0xb2>
  ac:	8d 74 26 00          	lea    0x0(%esi,%eiz,1),%esi
        mid = mid / 10;
        cnt ++;
  b0:	89 fb                	mov    %edi,%ebx

    char t, midInverse[1000];
    int cnt = 0, mid = array[3];
    while(mid != 0) {
        t = (mid % 10) + '0';
        midInverse[cnt] = t;
  b2:	89 c8                	mov    %ecx,%eax
        mid = mid / 10;
        cnt ++;
  b4:	8d 7b 01             	lea    0x1(%ebx),%edi

    char t, midInverse[1000];
    int cnt = 0, mid = array[3];
    while(mid != 0) {
        t = (mid % 10) + '0';
        midInverse[cnt] = t;
  b7:	f7 ee                	imul   %esi
  b9:	89 c8                	mov    %ecx,%eax
  bb:	c1 f8 1f             	sar    $0x1f,%eax
  be:	c1 fa 02             	sar    $0x2,%edx
  c1:	29 c2                	sub    %eax,%edx
  c3:	8d 04 92             	lea    (%edx,%edx,4),%eax
  c6:	01 c0                	add    %eax,%eax
  c8:	29 c1                	sub    %eax,%ecx
  ca:	83 c1 30             	add    $0x30,%ecx
        }
    }

    char t, midInverse[1000];
    int cnt = 0, mid = array[3];
    while(mid != 0) {
  cd:	85 d2                	test   %edx,%edx
        t = (mid % 10) + '0';
        midInverse[cnt] = t;
  cf:	88 8c 1d 18 f8 ff ff 	mov    %cl,-0x7e8(%ebp,%ebx,1)
        mid = mid / 10;
  d6:	89 d1                	mov    %edx,%ecx
        }
    }

    char t, midInverse[1000];
    int cnt = 0, mid = array[3];
    while(mid != 0) {
  d8:	75 d6                	jne    b0 <main+0xb0>
  da:	8d 85 18 f8 ff ff    	lea    -0x7e8(%ebp),%eax
  e0:	8d 95 00 fc ff ff    	lea    -0x400(%ebp),%edx
  e6:	01 d8                	add    %ebx,%eax
  e8:	8d 9d 17 f8 ff ff    	lea    -0x7e9(%ebp),%ebx
  ee:	66 90                	xchg   %ax,%ax
    }

    int n = 0;
    char middle[1000];
    for(i = cnt-1; i >= 0; i--) {
        middle[n] = midInverse[i];
  f0:	0f b6 08             	movzbl (%eax),%ecx
  f3:	83 e8 01             	sub    $0x1,%eax
  f6:	83 c2 01             	add    $0x1,%edx
  f9:	88 4a ff             	mov    %cl,-0x1(%edx)
        cnt ++;
    }

    int n = 0;
    char middle[1000];
    for(i = cnt-1; i >= 0; i--) {
  fc:	39 d8                	cmp    %ebx,%eax
  fe:	75 f0                	jne    f0 <main+0xf0>
        middle[n] = midInverse[i];
        n++;
    }
    middle[n] = '\n';
 100:	c6 84 3d 00 fc ff ff 	movb   $0xa,-0x400(%ebp,%edi,1)
 107:	0a 
    
    printf(1, "proccess Id is %d \n", getpid());
 108:	e8 55 03 00 00       	call   462 <getpid>
 10d:	51                   	push   %ecx
 10e:	50                   	push   %eax
 10f:	68 a4 08 00 00       	push   $0x8a4
 114:	6a 01                	push   $0x1
 116:	e8 25 04 00 00       	call   540 <printf>
    int fileDesc;
    if( (fileDesc = open("result.txt", O_CREATE | O_WRONLY)) < 0) {
 11b:	5b                   	pop    %ebx
 11c:	5e                   	pop    %esi
 11d:	68 01 02 00 00       	push   $0x201
 122:	68 c8 08 00 00       	push   $0x8c8
 127:	e8 f6 02 00 00       	call   422 <open>
 12c:	83 c4 10             	add    $0x10,%esp
 12f:	85 c0                	test   %eax,%eax
 131:	89 c6                	mov    %eax,%esi
 133:	78 3e                	js     173 <main+0x173>
        printf(1, "can't open file result.txt");
        exit();
    }
   
    if(write(fileDesc, middle, strlen(middle)) != strlen(middle)) {
 135:	8d 9d 00 fc ff ff    	lea    -0x400(%ebp),%ebx
 13b:	83 ec 0c             	sub    $0xc,%esp
 13e:	53                   	push   %ebx
 13f:	e8 dc 00 00 00       	call   220 <strlen>
 144:	83 c4 0c             	add    $0xc,%esp
 147:	50                   	push   %eax
 148:	53                   	push   %ebx
 149:	56                   	push   %esi
 14a:	e8 b3 02 00 00       	call   402 <write>
 14f:	89 c6                	mov    %eax,%esi
 151:	89 1c 24             	mov    %ebx,(%esp)
 154:	e8 c7 00 00 00       	call   220 <strlen>
 159:	83 c4 10             	add    $0x10,%esp
 15c:	39 c6                	cmp    %eax,%esi
 15e:	74 26                	je     186 <main+0x186>
        printf(1, "Eror when writing in result.txt");
 160:	50                   	push   %eax
 161:	50                   	push   %eax
 162:	68 84 08 00 00       	push   $0x884
 167:	6a 01                	push   $0x1
 169:	e8 d2 03 00 00       	call   540 <printf>
        exit();
 16e:	e8 6f 02 00 00       	call   3e2 <exit>
    middle[n] = '\n';
    
    printf(1, "proccess Id is %d \n", getpid());
    int fileDesc;
    if( (fileDesc = open("result.txt", O_CREATE | O_WRONLY)) < 0) {
        printf(1, "can't open file result.txt");
 173:	52                   	push   %edx
 174:	52                   	push   %edx
 175:	68 b8 08 00 00       	push   $0x8b8
 17a:	6a 01                	push   $0x1
 17c:	e8 bf 03 00 00       	call   540 <printf>
        exit();
 181:	e8 5c 02 00 00       	call   3e2 <exit>
   
    if(write(fileDesc, middle, strlen(middle)) != strlen(middle)) {
        printf(1, "Eror when writing in result.txt");
        exit();
    }
    exit();
 186:	e8 57 02 00 00       	call   3e2 <exit>
        midInverse[cnt] = t;
        mid = mid / 10;
        cnt ++;
    }

    int n = 0;
 18b:	31 ff                	xor    %edi,%edi
 18d:	e9 6e ff ff ff       	jmp    100 <main+0x100>
 192:	66 90                	xchg   %ax,%ax
 194:	66 90                	xchg   %ax,%ax
 196:	66 90                	xchg   %ax,%ax
 198:	66 90                	xchg   %ax,%ax
 19a:	66 90                	xchg   %ax,%ax
 19c:	66 90                	xchg   %ax,%ax
 19e:	66 90                	xchg   %ax,%ax

000001a0 <strcpy>:
#include "user.h"
#include "x86.h"

char*
strcpy(char *s, const char *t)
{
 1a0:	55                   	push   %ebp
 1a1:	89 e5                	mov    %esp,%ebp
 1a3:	53                   	push   %ebx
 1a4:	8b 45 08             	mov    0x8(%ebp),%eax
 1a7:	8b 4d 0c             	mov    0xc(%ebp),%ecx
  char *os;

  os = s;
  while((*s++ = *t++) != 0)
 1aa:	89 c2                	mov    %eax,%edx
 1ac:	8d 74 26 00          	lea    0x0(%esi,%eiz,1),%esi
 1b0:	83 c1 01             	add    $0x1,%ecx
 1b3:	0f b6 59 ff          	movzbl -0x1(%ecx),%ebx
 1b7:	83 c2 01             	add    $0x1,%edx
 1ba:	84 db                	test   %bl,%bl
 1bc:	88 5a ff             	mov    %bl,-0x1(%edx)
 1bf:	75 ef                	jne    1b0 <strcpy+0x10>
    ;
  return os;
}
 1c1:	5b                   	pop    %ebx
 1c2:	5d                   	pop    %ebp
 1c3:	c3                   	ret    
 1c4:	8d b6 00 00 00 00    	lea    0x0(%esi),%esi
 1ca:	8d bf 00 00 00 00    	lea    0x0(%edi),%edi

000001d0 <strcmp>:

int
strcmp(const char *p, const char *q)
{
 1d0:	55                   	push   %ebp
 1d1:	89 e5                	mov    %esp,%ebp
 1d3:	56                   	push   %esi
 1d4:	53                   	push   %ebx
 1d5:	8b 55 08             	mov    0x8(%ebp),%edx
 1d8:	8b 4d 0c             	mov    0xc(%ebp),%ecx
  while(*p && *p == *q)
 1db:	0f b6 02             	movzbl (%edx),%eax
 1de:	0f b6 19             	movzbl (%ecx),%ebx
 1e1:	84 c0                	test   %al,%al
 1e3:	75 1e                	jne    203 <strcmp+0x33>
 1e5:	eb 29                	jmp    210 <strcmp+0x40>
 1e7:	89 f6                	mov    %esi,%esi
 1e9:	8d bc 27 00 00 00 00 	lea    0x0(%edi,%eiz,1),%edi
    p++, q++;
 1f0:	83 c2 01             	add    $0x1,%edx
}

int
strcmp(const char *p, const char *q)
{
  while(*p && *p == *q)
 1f3:	0f b6 02             	movzbl (%edx),%eax
    p++, q++;
 1f6:	8d 71 01             	lea    0x1(%ecx),%esi
}

int
strcmp(const char *p, const char *q)
{
  while(*p && *p == *q)
 1f9:	0f b6 59 01          	movzbl 0x1(%ecx),%ebx
 1fd:	84 c0                	test   %al,%al
 1ff:	74 0f                	je     210 <strcmp+0x40>
 201:	89 f1                	mov    %esi,%ecx
 203:	38 d8                	cmp    %bl,%al
 205:	74 e9                	je     1f0 <strcmp+0x20>
    p++, q++;
  return (uchar)*p - (uchar)*q;
 207:	29 d8                	sub    %ebx,%eax
}
 209:	5b                   	pop    %ebx
 20a:	5e                   	pop    %esi
 20b:	5d                   	pop    %ebp
 20c:	c3                   	ret    
 20d:	8d 76 00             	lea    0x0(%esi),%esi
}

int
strcmp(const char *p, const char *q)
{
  while(*p && *p == *q)
 210:	31 c0                	xor    %eax,%eax
    p++, q++;
  return (uchar)*p - (uchar)*q;
 212:	29 d8                	sub    %ebx,%eax
}
 214:	5b                   	pop    %ebx
 215:	5e                   	pop    %esi
 216:	5d                   	pop    %ebp
 217:	c3                   	ret    
 218:	90                   	nop
 219:	8d b4 26 00 00 00 00 	lea    0x0(%esi,%eiz,1),%esi

00000220 <strlen>:

uint
strlen(const char *s)
{
 220:	55                   	push   %ebp
 221:	89 e5                	mov    %esp,%ebp
 223:	8b 4d 08             	mov    0x8(%ebp),%ecx
  int n;

  for(n = 0; s[n]; n++)
 226:	80 39 00             	cmpb   $0x0,(%ecx)
 229:	74 12                	je     23d <strlen+0x1d>
 22b:	31 d2                	xor    %edx,%edx
 22d:	8d 76 00             	lea    0x0(%esi),%esi
 230:	83 c2 01             	add    $0x1,%edx
 233:	80 3c 11 00          	cmpb   $0x0,(%ecx,%edx,1)
 237:	89 d0                	mov    %edx,%eax
 239:	75 f5                	jne    230 <strlen+0x10>
    ;
  return n;
}
 23b:	5d                   	pop    %ebp
 23c:	c3                   	ret    
uint
strlen(const char *s)
{
  int n;

  for(n = 0; s[n]; n++)
 23d:	31 c0                	xor    %eax,%eax
    ;
  return n;
}
 23f:	5d                   	pop    %ebp
 240:	c3                   	ret    
 241:	eb 0d                	jmp    250 <memset>
 243:	90                   	nop
 244:	90                   	nop
 245:	90                   	nop
 246:	90                   	nop
 247:	90                   	nop
 248:	90                   	nop
 249:	90                   	nop
 24a:	90                   	nop
 24b:	90                   	nop
 24c:	90                   	nop
 24d:	90                   	nop
 24e:	90                   	nop
 24f:	90                   	nop

00000250 <memset>:

void*
memset(void *dst, int c, uint n)
{
 250:	55                   	push   %ebp
 251:	89 e5                	mov    %esp,%ebp
 253:	57                   	push   %edi
 254:	8b 55 08             	mov    0x8(%ebp),%edx
}

static inline void
stosb(void *addr, int data, int cnt)
{
  asm volatile("cld; rep stosb" :
 257:	8b 4d 10             	mov    0x10(%ebp),%ecx
 25a:	8b 45 0c             	mov    0xc(%ebp),%eax
 25d:	89 d7                	mov    %edx,%edi
 25f:	fc                   	cld    
 260:	f3 aa                	rep stos %al,%es:(%edi)
  stosb(dst, c, n);
  return dst;
}
 262:	89 d0                	mov    %edx,%eax
 264:	5f                   	pop    %edi
 265:	5d                   	pop    %ebp
 266:	c3                   	ret    
 267:	89 f6                	mov    %esi,%esi
 269:	8d bc 27 00 00 00 00 	lea    0x0(%edi,%eiz,1),%edi

00000270 <strchr>:

char*
strchr(const char *s, char c)
{
 270:	55                   	push   %ebp
 271:	89 e5                	mov    %esp,%ebp
 273:	53                   	push   %ebx
 274:	8b 45 08             	mov    0x8(%ebp),%eax
 277:	8b 5d 0c             	mov    0xc(%ebp),%ebx
  for(; *s; s++)
 27a:	0f b6 10             	movzbl (%eax),%edx
 27d:	84 d2                	test   %dl,%dl
 27f:	74 1d                	je     29e <strchr+0x2e>
    if(*s == c)
 281:	38 d3                	cmp    %dl,%bl
 283:	89 d9                	mov    %ebx,%ecx
 285:	75 0d                	jne    294 <strchr+0x24>
 287:	eb 17                	jmp    2a0 <strchr+0x30>
 289:	8d b4 26 00 00 00 00 	lea    0x0(%esi,%eiz,1),%esi
 290:	38 ca                	cmp    %cl,%dl
 292:	74 0c                	je     2a0 <strchr+0x30>
}

char*
strchr(const char *s, char c)
{
  for(; *s; s++)
 294:	83 c0 01             	add    $0x1,%eax
 297:	0f b6 10             	movzbl (%eax),%edx
 29a:	84 d2                	test   %dl,%dl
 29c:	75 f2                	jne    290 <strchr+0x20>
    if(*s == c)
      return (char*)s;
  return 0;
 29e:	31 c0                	xor    %eax,%eax
}
 2a0:	5b                   	pop    %ebx
 2a1:	5d                   	pop    %ebp
 2a2:	c3                   	ret    
 2a3:	8d b6 00 00 00 00    	lea    0x0(%esi),%esi
 2a9:	8d bc 27 00 00 00 00 	lea    0x0(%edi,%eiz,1),%edi

000002b0 <gets>:

char*
gets(char *buf, int max)
{
 2b0:	55                   	push   %ebp
 2b1:	89 e5                	mov    %esp,%ebp
 2b3:	57                   	push   %edi
 2b4:	56                   	push   %esi
 2b5:	53                   	push   %ebx
  int i, cc;
  char c;

  for(i=0; i+1 < max; ){
 2b6:	31 f6                	xor    %esi,%esi
    cc = read(0, &c, 1);
 2b8:	8d 7d e7             	lea    -0x19(%ebp),%edi
  return 0;
}

char*
gets(char *buf, int max)
{
 2bb:	83 ec 1c             	sub    $0x1c,%esp
  int i, cc;
  char c;

  for(i=0; i+1 < max; ){
 2be:	eb 29                	jmp    2e9 <gets+0x39>
    cc = read(0, &c, 1);
 2c0:	83 ec 04             	sub    $0x4,%esp
 2c3:	6a 01                	push   $0x1
 2c5:	57                   	push   %edi
 2c6:	6a 00                	push   $0x0
 2c8:	e8 2d 01 00 00       	call   3fa <read>
    if(cc < 1)
 2cd:	83 c4 10             	add    $0x10,%esp
 2d0:	85 c0                	test   %eax,%eax
 2d2:	7e 1d                	jle    2f1 <gets+0x41>
      break;
    buf[i++] = c;
 2d4:	0f b6 45 e7          	movzbl -0x19(%ebp),%eax
 2d8:	8b 55 08             	mov    0x8(%ebp),%edx
 2db:	89 de                	mov    %ebx,%esi
    if(c == '\n' || c == '\r')
 2dd:	3c 0a                	cmp    $0xa,%al

  for(i=0; i+1 < max; ){
    cc = read(0, &c, 1);
    if(cc < 1)
      break;
    buf[i++] = c;
 2df:	88 44 1a ff          	mov    %al,-0x1(%edx,%ebx,1)
    if(c == '\n' || c == '\r')
 2e3:	74 1b                	je     300 <gets+0x50>
 2e5:	3c 0d                	cmp    $0xd,%al
 2e7:	74 17                	je     300 <gets+0x50>
gets(char *buf, int max)
{
  int i, cc;
  char c;

  for(i=0; i+1 < max; ){
 2e9:	8d 5e 01             	lea    0x1(%esi),%ebx
 2ec:	3b 5d 0c             	cmp    0xc(%ebp),%ebx
 2ef:	7c cf                	jl     2c0 <gets+0x10>
      break;
    buf[i++] = c;
    if(c == '\n' || c == '\r')
      break;
  }
  buf[i] = '\0';
 2f1:	8b 45 08             	mov    0x8(%ebp),%eax
 2f4:	c6 04 30 00          	movb   $0x0,(%eax,%esi,1)
  return buf;
}
 2f8:	8d 65 f4             	lea    -0xc(%ebp),%esp
 2fb:	5b                   	pop    %ebx
 2fc:	5e                   	pop    %esi
 2fd:	5f                   	pop    %edi
 2fe:	5d                   	pop    %ebp
 2ff:	c3                   	ret    
      break;
    buf[i++] = c;
    if(c == '\n' || c == '\r')
      break;
  }
  buf[i] = '\0';
 300:	8b 45 08             	mov    0x8(%ebp),%eax
gets(char *buf, int max)
{
  int i, cc;
  char c;

  for(i=0; i+1 < max; ){
 303:	89 de                	mov    %ebx,%esi
      break;
    buf[i++] = c;
    if(c == '\n' || c == '\r')
      break;
  }
  buf[i] = '\0';
 305:	c6 04 30 00          	movb   $0x0,(%eax,%esi,1)
  return buf;
}
 309:	8d 65 f4             	lea    -0xc(%ebp),%esp
 30c:	5b                   	pop    %ebx
 30d:	5e                   	pop    %esi
 30e:	5f                   	pop    %edi
 30f:	5d                   	pop    %ebp
 310:	c3                   	ret    
 311:	eb 0d                	jmp    320 <stat>
 313:	90                   	nop
 314:	90                   	nop
 315:	90                   	nop
 316:	90                   	nop
 317:	90                   	nop
 318:	90                   	nop
 319:	90                   	nop
 31a:	90                   	nop
 31b:	90                   	nop
 31c:	90                   	nop
 31d:	90                   	nop
 31e:	90                   	nop
 31f:	90                   	nop

00000320 <stat>:

int
stat(const char *n, struct stat *st)
{
 320:	55                   	push   %ebp
 321:	89 e5                	mov    %esp,%ebp
 323:	56                   	push   %esi
 324:	53                   	push   %ebx
  int fd;
  int r;

  fd = open(n, O_RDONLY);
 325:	83 ec 08             	sub    $0x8,%esp
 328:	6a 00                	push   $0x0
 32a:	ff 75 08             	pushl  0x8(%ebp)
 32d:	e8 f0 00 00 00       	call   422 <open>
  if(fd < 0)
 332:	83 c4 10             	add    $0x10,%esp
 335:	85 c0                	test   %eax,%eax
 337:	78 27                	js     360 <stat+0x40>
    return -1;
  r = fstat(fd, st);
 339:	83 ec 08             	sub    $0x8,%esp
 33c:	ff 75 0c             	pushl  0xc(%ebp)
 33f:	89 c3                	mov    %eax,%ebx
 341:	50                   	push   %eax
 342:	e8 f3 00 00 00       	call   43a <fstat>
 347:	89 c6                	mov    %eax,%esi
  close(fd);
 349:	89 1c 24             	mov    %ebx,(%esp)
 34c:	e8 b9 00 00 00       	call   40a <close>
  return r;
 351:	83 c4 10             	add    $0x10,%esp
 354:	89 f0                	mov    %esi,%eax
}
 356:	8d 65 f8             	lea    -0x8(%ebp),%esp
 359:	5b                   	pop    %ebx
 35a:	5e                   	pop    %esi
 35b:	5d                   	pop    %ebp
 35c:	c3                   	ret    
 35d:	8d 76 00             	lea    0x0(%esi),%esi
  int fd;
  int r;

  fd = open(n, O_RDONLY);
  if(fd < 0)
    return -1;
 360:	b8 ff ff ff ff       	mov    $0xffffffff,%eax
 365:	eb ef                	jmp    356 <stat+0x36>
 367:	89 f6                	mov    %esi,%esi
 369:	8d bc 27 00 00 00 00 	lea    0x0(%edi,%eiz,1),%edi

00000370 <atoi>:
  return r;
}

int
atoi(const char *s)
{
 370:	55                   	push   %ebp
 371:	89 e5                	mov    %esp,%ebp
 373:	53                   	push   %ebx
 374:	8b 4d 08             	mov    0x8(%ebp),%ecx
  int n;

  n = 0;
  while('0' <= *s && *s <= '9')
 377:	0f be 11             	movsbl (%ecx),%edx
 37a:	8d 42 d0             	lea    -0x30(%edx),%eax
 37d:	3c 09                	cmp    $0x9,%al
 37f:	b8 00 00 00 00       	mov    $0x0,%eax
 384:	77 1f                	ja     3a5 <atoi+0x35>
 386:	8d 76 00             	lea    0x0(%esi),%esi
 389:	8d bc 27 00 00 00 00 	lea    0x0(%edi,%eiz,1),%edi
    n = n*10 + *s++ - '0';
 390:	8d 04 80             	lea    (%eax,%eax,4),%eax
 393:	83 c1 01             	add    $0x1,%ecx
 396:	8d 44 42 d0          	lea    -0x30(%edx,%eax,2),%eax
atoi(const char *s)
{
  int n;

  n = 0;
  while('0' <= *s && *s <= '9')
 39a:	0f be 11             	movsbl (%ecx),%edx
 39d:	8d 5a d0             	lea    -0x30(%edx),%ebx
 3a0:	80 fb 09             	cmp    $0x9,%bl
 3a3:	76 eb                	jbe    390 <atoi+0x20>
    n = n*10 + *s++ - '0';
  return n;
}
 3a5:	5b                   	pop    %ebx
 3a6:	5d                   	pop    %ebp
 3a7:	c3                   	ret    
 3a8:	90                   	nop
 3a9:	8d b4 26 00 00 00 00 	lea    0x0(%esi,%eiz,1),%esi

000003b0 <memmove>:

void*
memmove(void *vdst, const void *vsrc, int n)
{
 3b0:	55                   	push   %ebp
 3b1:	89 e5                	mov    %esp,%ebp
 3b3:	56                   	push   %esi
 3b4:	53                   	push   %ebx
 3b5:	8b 5d 10             	mov    0x10(%ebp),%ebx
 3b8:	8b 45 08             	mov    0x8(%ebp),%eax
 3bb:	8b 75 0c             	mov    0xc(%ebp),%esi
  char *dst;
  const char *src;

  dst = vdst;
  src = vsrc;
  while(n-- > 0)
 3be:	85 db                	test   %ebx,%ebx
 3c0:	7e 14                	jle    3d6 <memmove+0x26>
 3c2:	31 d2                	xor    %edx,%edx
 3c4:	8d 74 26 00          	lea    0x0(%esi,%eiz,1),%esi
    *dst++ = *src++;
 3c8:	0f b6 0c 16          	movzbl (%esi,%edx,1),%ecx
 3cc:	88 0c 10             	mov    %cl,(%eax,%edx,1)
 3cf:	83 c2 01             	add    $0x1,%edx
  char *dst;
  const char *src;

  dst = vdst;
  src = vsrc;
  while(n-- > 0)
 3d2:	39 da                	cmp    %ebx,%edx
 3d4:	75 f2                	jne    3c8 <memmove+0x18>
    *dst++ = *src++;
  return vdst;
}
 3d6:	5b                   	pop    %ebx
 3d7:	5e                   	pop    %esi
 3d8:	5d                   	pop    %ebp
 3d9:	c3                   	ret    

000003da <fork>:
 3da:	b8 01 00 00 00       	mov    $0x1,%eax
 3df:	cd 40                	int    $0x40
 3e1:	c3                   	ret    

000003e2 <exit>:
 3e2:	b8 02 00 00 00       	mov    $0x2,%eax
 3e7:	cd 40                	int    $0x40
 3e9:	c3                   	ret    

000003ea <wait>:
 3ea:	b8 03 00 00 00       	mov    $0x3,%eax
 3ef:	cd 40                	int    $0x40
 3f1:	c3                   	ret    

000003f2 <pipe>:
 3f2:	b8 04 00 00 00       	mov    $0x4,%eax
 3f7:	cd 40                	int    $0x40
 3f9:	c3                   	ret    

000003fa <read>:
 3fa:	b8 05 00 00 00       	mov    $0x5,%eax
 3ff:	cd 40                	int    $0x40
 401:	c3                   	ret    

00000402 <write>:
 402:	b8 10 00 00 00       	mov    $0x10,%eax
 407:	cd 40                	int    $0x40
 409:	c3                   	ret    

0000040a <close>:
 40a:	b8 15 00 00 00       	mov    $0x15,%eax
 40f:	cd 40                	int    $0x40
 411:	c3                   	ret    

00000412 <kill>:
 412:	b8 06 00 00 00       	mov    $0x6,%eax
 417:	cd 40                	int    $0x40
 419:	c3                   	ret    

0000041a <exec>:
 41a:	b8 07 00 00 00       	mov    $0x7,%eax
 41f:	cd 40                	int    $0x40
 421:	c3                   	ret    

00000422 <open>:
 422:	b8 0f 00 00 00       	mov    $0xf,%eax
 427:	cd 40                	int    $0x40
 429:	c3                   	ret    

0000042a <mknod>:
 42a:	b8 11 00 00 00       	mov    $0x11,%eax
 42f:	cd 40                	int    $0x40
 431:	c3                   	ret    

00000432 <unlink>:
 432:	b8 12 00 00 00       	mov    $0x12,%eax
 437:	cd 40                	int    $0x40
 439:	c3                   	ret    

0000043a <fstat>:
 43a:	b8 08 00 00 00       	mov    $0x8,%eax
 43f:	cd 40                	int    $0x40
 441:	c3                   	ret    

00000442 <link>:
 442:	b8 13 00 00 00       	mov    $0x13,%eax
 447:	cd 40                	int    $0x40
 449:	c3                   	ret    

0000044a <mkdir>:
 44a:	b8 14 00 00 00       	mov    $0x14,%eax
 44f:	cd 40                	int    $0x40
 451:	c3                   	ret    

00000452 <chdir>:
 452:	b8 09 00 00 00       	mov    $0x9,%eax
 457:	cd 40                	int    $0x40
 459:	c3                   	ret    

0000045a <dup>:
 45a:	b8 0a 00 00 00       	mov    $0xa,%eax
 45f:	cd 40                	int    $0x40
 461:	c3                   	ret    

00000462 <getpid>:
 462:	b8 0b 00 00 00       	mov    $0xb,%eax
 467:	cd 40                	int    $0x40
 469:	c3                   	ret    

0000046a <sbrk>:
 46a:	b8 0c 00 00 00       	mov    $0xc,%eax
 46f:	cd 40                	int    $0x40
 471:	c3                   	ret    

00000472 <sleep>:
 472:	b8 0d 00 00 00       	mov    $0xd,%eax
 477:	cd 40                	int    $0x40
 479:	c3                   	ret    

0000047a <uptime>:
 47a:	b8 0e 00 00 00       	mov    $0xe,%eax
 47f:	cd 40                	int    $0x40
 481:	c3                   	ret    

00000482 <incNum>:
 482:	b8 16 00 00 00       	mov    $0x16,%eax
 487:	cd 40                	int    $0x40
 489:	c3                   	ret    

0000048a <getprocs>:
 48a:	b8 17 00 00 00       	mov    $0x17,%eax
 48f:	cd 40                	int    $0x40
 491:	c3                   	ret    

00000492 <printstack>:
 492:	b8 18 00 00 00       	mov    $0x18,%eax
 497:	cd 40                	int    $0x40
 499:	c3                   	ret    
 49a:	66 90                	xchg   %ax,%ax
 49c:	66 90                	xchg   %ax,%ax
 49e:	66 90                	xchg   %ax,%ax

000004a0 <printint>:
  write(fd, &c, 1);
}

static void
printint(int fd, int xx, int base, int sgn)
{
 4a0:	55                   	push   %ebp
 4a1:	89 e5                	mov    %esp,%ebp
 4a3:	57                   	push   %edi
 4a4:	56                   	push   %esi
 4a5:	53                   	push   %ebx
 4a6:	89 c6                	mov    %eax,%esi
 4a8:	83 ec 3c             	sub    $0x3c,%esp
  char buf[16];
  int i, neg;
  uint x;

  neg = 0;
  if(sgn && xx < 0){
 4ab:	8b 5d 08             	mov    0x8(%ebp),%ebx
 4ae:	85 db                	test   %ebx,%ebx
 4b0:	74 7e                	je     530 <printint+0x90>
 4b2:	89 d0                	mov    %edx,%eax
 4b4:	c1 e8 1f             	shr    $0x1f,%eax
 4b7:	84 c0                	test   %al,%al
 4b9:	74 75                	je     530 <printint+0x90>
    neg = 1;
    x = -xx;
 4bb:	89 d0                	mov    %edx,%eax
  int i, neg;
  uint x;

  neg = 0;
  if(sgn && xx < 0){
    neg = 1;
 4bd:	c7 45 c4 01 00 00 00 	movl   $0x1,-0x3c(%ebp)
    x = -xx;
 4c4:	f7 d8                	neg    %eax
 4c6:	89 75 c0             	mov    %esi,-0x40(%ebp)
  } else {
    x = xx;
  }

  i = 0;
 4c9:	31 ff                	xor    %edi,%edi
 4cb:	8d 5d d7             	lea    -0x29(%ebp),%ebx
 4ce:	89 ce                	mov    %ecx,%esi
 4d0:	eb 08                	jmp    4da <printint+0x3a>
 4d2:	8d b6 00 00 00 00    	lea    0x0(%esi),%esi
  do{
    buf[i++] = digits[x % base];
 4d8:	89 cf                	mov    %ecx,%edi
 4da:	31 d2                	xor    %edx,%edx
 4dc:	8d 4f 01             	lea    0x1(%edi),%ecx
 4df:	f7 f6                	div    %esi
 4e1:	0f b6 92 dc 08 00 00 	movzbl 0x8dc(%edx),%edx
  }while((x /= base) != 0);
 4e8:	85 c0                	test   %eax,%eax
    x = xx;
  }

  i = 0;
  do{
    buf[i++] = digits[x % base];
 4ea:	88 14 0b             	mov    %dl,(%ebx,%ecx,1)
  }while((x /= base) != 0);
 4ed:	75 e9                	jne    4d8 <printint+0x38>
  if(neg)
 4ef:	8b 45 c4             	mov    -0x3c(%ebp),%eax
 4f2:	8b 75 c0             	mov    -0x40(%ebp),%esi
 4f5:	85 c0                	test   %eax,%eax
 4f7:	74 08                	je     501 <printint+0x61>
    buf[i++] = '-';
 4f9:	c6 44 0d d8 2d       	movb   $0x2d,-0x28(%ebp,%ecx,1)
 4fe:	8d 4f 02             	lea    0x2(%edi),%ecx
 501:	8d 7c 0d d7          	lea    -0x29(%ebp,%ecx,1),%edi
 505:	8d 76 00             	lea    0x0(%esi),%esi
 508:	0f b6 07             	movzbl (%edi),%eax
#include "user.h"

static void
putc(int fd, char c)
{
  write(fd, &c, 1);
 50b:	83 ec 04             	sub    $0x4,%esp
 50e:	83 ef 01             	sub    $0x1,%edi
 511:	6a 01                	push   $0x1
 513:	53                   	push   %ebx
 514:	56                   	push   %esi
 515:	88 45 d7             	mov    %al,-0x29(%ebp)
 518:	e8 e5 fe ff ff       	call   402 <write>
    buf[i++] = digits[x % base];
  }while((x /= base) != 0);
  if(neg)
    buf[i++] = '-';

  while(--i >= 0)
 51d:	83 c4 10             	add    $0x10,%esp
 520:	39 df                	cmp    %ebx,%edi
 522:	75 e4                	jne    508 <printint+0x68>
    putc(fd, buf[i]);
}
 524:	8d 65 f4             	lea    -0xc(%ebp),%esp
 527:	5b                   	pop    %ebx
 528:	5e                   	pop    %esi
 529:	5f                   	pop    %edi
 52a:	5d                   	pop    %ebp
 52b:	c3                   	ret    
 52c:	8d 74 26 00          	lea    0x0(%esi,%eiz,1),%esi
  neg = 0;
  if(sgn && xx < 0){
    neg = 1;
    x = -xx;
  } else {
    x = xx;
 530:	89 d0                	mov    %edx,%eax
  static char digits[] = "0123456789ABCDEF";
  char buf[16];
  int i, neg;
  uint x;

  neg = 0;
 532:	c7 45 c4 00 00 00 00 	movl   $0x0,-0x3c(%ebp)
 539:	eb 8b                	jmp    4c6 <printint+0x26>
 53b:	90                   	nop
 53c:	8d 74 26 00          	lea    0x0(%esi,%eiz,1),%esi

00000540 <printf>:
}

// Print to the given fd. Only understands %d, %x, %p, %s.
void
printf(int fd, const char *fmt, ...)
{
 540:	55                   	push   %ebp
 541:	89 e5                	mov    %esp,%ebp
 543:	57                   	push   %edi
 544:	56                   	push   %esi
 545:	53                   	push   %ebx
  int c, i, state;
  uint *ap;

  state = 0;
  ap = (uint*)(void*)&fmt + 1;
  for(i = 0; fmt[i]; i++){
 546:	8d 45 10             	lea    0x10(%ebp),%eax
}

// Print to the given fd. Only understands %d, %x, %p, %s.
void
printf(int fd, const char *fmt, ...)
{
 549:	83 ec 2c             	sub    $0x2c,%esp
  int c, i, state;
  uint *ap;

  state = 0;
  ap = (uint*)(void*)&fmt + 1;
  for(i = 0; fmt[i]; i++){
 54c:	8b 75 0c             	mov    0xc(%ebp),%esi
}

// Print to the given fd. Only understands %d, %x, %p, %s.
void
printf(int fd, const char *fmt, ...)
{
 54f:	8b 7d 08             	mov    0x8(%ebp),%edi
  int c, i, state;
  uint *ap;

  state = 0;
  ap = (uint*)(void*)&fmt + 1;
  for(i = 0; fmt[i]; i++){
 552:	89 45 d0             	mov    %eax,-0x30(%ebp)
 555:	0f b6 1e             	movzbl (%esi),%ebx
 558:	83 c6 01             	add    $0x1,%esi
 55b:	84 db                	test   %bl,%bl
 55d:	0f 84 b0 00 00 00    	je     613 <printf+0xd3>
 563:	31 d2                	xor    %edx,%edx
 565:	eb 39                	jmp    5a0 <printf+0x60>
 567:	89 f6                	mov    %esi,%esi
 569:	8d bc 27 00 00 00 00 	lea    0x0(%edi,%eiz,1),%edi
    c = fmt[i] & 0xff;
    if(state == 0){
      if(c == '%'){
 570:	83 f8 25             	cmp    $0x25,%eax
 573:	89 55 d4             	mov    %edx,-0x2c(%ebp)
        state = '%';
 576:	ba 25 00 00 00       	mov    $0x25,%edx
  state = 0;
  ap = (uint*)(void*)&fmt + 1;
  for(i = 0; fmt[i]; i++){
    c = fmt[i] & 0xff;
    if(state == 0){
      if(c == '%'){
 57b:	74 18                	je     595 <printf+0x55>
#include "user.h"

static void
putc(int fd, char c)
{
  write(fd, &c, 1);
 57d:	8d 45 e2             	lea    -0x1e(%ebp),%eax
 580:	83 ec 04             	sub    $0x4,%esp
 583:	88 5d e2             	mov    %bl,-0x1e(%ebp)
 586:	6a 01                	push   $0x1
 588:	50                   	push   %eax
 589:	57                   	push   %edi
 58a:	e8 73 fe ff ff       	call   402 <write>
 58f:	8b 55 d4             	mov    -0x2c(%ebp),%edx
 592:	83 c4 10             	add    $0x10,%esp
 595:	83 c6 01             	add    $0x1,%esi
  int c, i, state;
  uint *ap;

  state = 0;
  ap = (uint*)(void*)&fmt + 1;
  for(i = 0; fmt[i]; i++){
 598:	0f b6 5e ff          	movzbl -0x1(%esi),%ebx
 59c:	84 db                	test   %bl,%bl
 59e:	74 73                	je     613 <printf+0xd3>
    c = fmt[i] & 0xff;
    if(state == 0){
 5a0:	85 d2                	test   %edx,%edx
  uint *ap;

  state = 0;
  ap = (uint*)(void*)&fmt + 1;
  for(i = 0; fmt[i]; i++){
    c = fmt[i] & 0xff;
 5a2:	0f be cb             	movsbl %bl,%ecx
 5a5:	0f b6 c3             	movzbl %bl,%eax
    if(state == 0){
 5a8:	74 c6                	je     570 <printf+0x30>
      if(c == '%'){
        state = '%';
      } else {
        putc(fd, c);
      }
    } else if(state == '%'){
 5aa:	83 fa 25             	cmp    $0x25,%edx
 5ad:	75 e6                	jne    595 <printf+0x55>
      if(c == 'd'){
 5af:	83 f8 64             	cmp    $0x64,%eax
 5b2:	0f 84 f8 00 00 00    	je     6b0 <printf+0x170>
        printint(fd, *ap, 10, 1);
        ap++;
      } else if(c == 'x' || c == 'p'){
 5b8:	81 e1 f7 00 00 00    	and    $0xf7,%ecx
 5be:	83 f9 70             	cmp    $0x70,%ecx
 5c1:	74 5d                	je     620 <printf+0xe0>
        printint(fd, *ap, 16, 0);
        ap++;
      } else if(c == 's'){
 5c3:	83 f8 73             	cmp    $0x73,%eax
 5c6:	0f 84 84 00 00 00    	je     650 <printf+0x110>
          s = "(null)";
        while(*s != 0){
          putc(fd, *s);
          s++;
        }
      } else if(c == 'c'){
 5cc:	83 f8 63             	cmp    $0x63,%eax
 5cf:	0f 84 ea 00 00 00    	je     6bf <printf+0x17f>
        putc(fd, *ap);
        ap++;
      } else if(c == '%'){
 5d5:	83 f8 25             	cmp    $0x25,%eax
 5d8:	0f 84 c2 00 00 00    	je     6a0 <printf+0x160>
#include "user.h"

static void
putc(int fd, char c)
{
  write(fd, &c, 1);
 5de:	8d 45 e7             	lea    -0x19(%ebp),%eax
 5e1:	83 ec 04             	sub    $0x4,%esp
 5e4:	c6 45 e7 25          	movb   $0x25,-0x19(%ebp)
 5e8:	6a 01                	push   $0x1
 5ea:	50                   	push   %eax
 5eb:	57                   	push   %edi
 5ec:	e8 11 fe ff ff       	call   402 <write>
 5f1:	83 c4 0c             	add    $0xc,%esp
 5f4:	8d 45 e6             	lea    -0x1a(%ebp),%eax
 5f7:	88 5d e6             	mov    %bl,-0x1a(%ebp)
 5fa:	6a 01                	push   $0x1
 5fc:	50                   	push   %eax
 5fd:	57                   	push   %edi
 5fe:	83 c6 01             	add    $0x1,%esi
 601:	e8 fc fd ff ff       	call   402 <write>
  int c, i, state;
  uint *ap;

  state = 0;
  ap = (uint*)(void*)&fmt + 1;
  for(i = 0; fmt[i]; i++){
 606:	0f b6 5e ff          	movzbl -0x1(%esi),%ebx
#include "user.h"

static void
putc(int fd, char c)
{
  write(fd, &c, 1);
 60a:	83 c4 10             	add    $0x10,%esp
      } else {
        // Unknown % sequence.  Print it to draw attention.
        putc(fd, '%');
        putc(fd, c);
      }
      state = 0;
 60d:	31 d2                	xor    %edx,%edx
  int c, i, state;
  uint *ap;

  state = 0;
  ap = (uint*)(void*)&fmt + 1;
  for(i = 0; fmt[i]; i++){
 60f:	84 db                	test   %bl,%bl
 611:	75 8d                	jne    5a0 <printf+0x60>
        putc(fd, c);
      }
      state = 0;
    }
  }
}
 613:	8d 65 f4             	lea    -0xc(%ebp),%esp
 616:	5b                   	pop    %ebx
 617:	5e                   	pop    %esi
 618:	5f                   	pop    %edi
 619:	5d                   	pop    %ebp
 61a:	c3                   	ret    
 61b:	90                   	nop
 61c:	8d 74 26 00          	lea    0x0(%esi,%eiz,1),%esi
    } else if(state == '%'){
      if(c == 'd'){
        printint(fd, *ap, 10, 1);
        ap++;
      } else if(c == 'x' || c == 'p'){
        printint(fd, *ap, 16, 0);
 620:	83 ec 0c             	sub    $0xc,%esp
 623:	b9 10 00 00 00       	mov    $0x10,%ecx
 628:	6a 00                	push   $0x0
 62a:	8b 5d d0             	mov    -0x30(%ebp),%ebx
 62d:	89 f8                	mov    %edi,%eax
 62f:	8b 13                	mov    (%ebx),%edx
 631:	e8 6a fe ff ff       	call   4a0 <printint>
        ap++;
 636:	89 d8                	mov    %ebx,%eax
 638:	83 c4 10             	add    $0x10,%esp
      } else {
        // Unknown % sequence.  Print it to draw attention.
        putc(fd, '%');
        putc(fd, c);
      }
      state = 0;
 63b:	31 d2                	xor    %edx,%edx
      if(c == 'd'){
        printint(fd, *ap, 10, 1);
        ap++;
      } else if(c == 'x' || c == 'p'){
        printint(fd, *ap, 16, 0);
        ap++;
 63d:	83 c0 04             	add    $0x4,%eax
 640:	89 45 d0             	mov    %eax,-0x30(%ebp)
 643:	e9 4d ff ff ff       	jmp    595 <printf+0x55>
 648:	90                   	nop
 649:	8d b4 26 00 00 00 00 	lea    0x0(%esi,%eiz,1),%esi
      } else if(c == 's'){
        s = (char*)*ap;
 650:	8b 45 d0             	mov    -0x30(%ebp),%eax
 653:	8b 18                	mov    (%eax),%ebx
        ap++;
 655:	83 c0 04             	add    $0x4,%eax
 658:	89 45 d0             	mov    %eax,-0x30(%ebp)
        if(s == 0)
          s = "(null)";
 65b:	b8 d3 08 00 00       	mov    $0x8d3,%eax
 660:	85 db                	test   %ebx,%ebx
 662:	0f 44 d8             	cmove  %eax,%ebx
        while(*s != 0){
 665:	0f b6 03             	movzbl (%ebx),%eax
 668:	84 c0                	test   %al,%al
 66a:	74 23                	je     68f <printf+0x14f>
 66c:	8d 74 26 00          	lea    0x0(%esi,%eiz,1),%esi
 670:	88 45 e3             	mov    %al,-0x1d(%ebp)
#include "user.h"

static void
putc(int fd, char c)
{
  write(fd, &c, 1);
 673:	8d 45 e3             	lea    -0x1d(%ebp),%eax
 676:	83 ec 04             	sub    $0x4,%esp
 679:	6a 01                	push   $0x1
        ap++;
        if(s == 0)
          s = "(null)";
        while(*s != 0){
          putc(fd, *s);
          s++;
 67b:	83 c3 01             	add    $0x1,%ebx
#include "user.h"

static void
putc(int fd, char c)
{
  write(fd, &c, 1);
 67e:	50                   	push   %eax
 67f:	57                   	push   %edi
 680:	e8 7d fd ff ff       	call   402 <write>
      } else if(c == 's'){
        s = (char*)*ap;
        ap++;
        if(s == 0)
          s = "(null)";
        while(*s != 0){
 685:	0f b6 03             	movzbl (%ebx),%eax
 688:	83 c4 10             	add    $0x10,%esp
 68b:	84 c0                	test   %al,%al
 68d:	75 e1                	jne    670 <printf+0x130>
      } else {
        // Unknown % sequence.  Print it to draw attention.
        putc(fd, '%');
        putc(fd, c);
      }
      state = 0;
 68f:	31 d2                	xor    %edx,%edx
 691:	e9 ff fe ff ff       	jmp    595 <printf+0x55>
 696:	8d 76 00             	lea    0x0(%esi),%esi
 699:	8d bc 27 00 00 00 00 	lea    0x0(%edi,%eiz,1),%edi
#include "user.h"

static void
putc(int fd, char c)
{
  write(fd, &c, 1);
 6a0:	83 ec 04             	sub    $0x4,%esp
 6a3:	88 5d e5             	mov    %bl,-0x1b(%ebp)
 6a6:	8d 45 e5             	lea    -0x1b(%ebp),%eax
 6a9:	6a 01                	push   $0x1
 6ab:	e9 4c ff ff ff       	jmp    5fc <printf+0xbc>
      } else {
        putc(fd, c);
      }
    } else if(state == '%'){
      if(c == 'd'){
        printint(fd, *ap, 10, 1);
 6b0:	83 ec 0c             	sub    $0xc,%esp
 6b3:	b9 0a 00 00 00       	mov    $0xa,%ecx
 6b8:	6a 01                	push   $0x1
 6ba:	e9 6b ff ff ff       	jmp    62a <printf+0xea>
 6bf:	8b 5d d0             	mov    -0x30(%ebp),%ebx
#include "user.h"

static void
putc(int fd, char c)
{
  write(fd, &c, 1);
 6c2:	83 ec 04             	sub    $0x4,%esp
 6c5:	8b 03                	mov    (%ebx),%eax
 6c7:	6a 01                	push   $0x1
 6c9:	88 45 e4             	mov    %al,-0x1c(%ebp)
 6cc:	8d 45 e4             	lea    -0x1c(%ebp),%eax
 6cf:	50                   	push   %eax
 6d0:	57                   	push   %edi
 6d1:	e8 2c fd ff ff       	call   402 <write>
 6d6:	e9 5b ff ff ff       	jmp    636 <printf+0xf6>
 6db:	66 90                	xchg   %ax,%ax
 6dd:	66 90                	xchg   %ax,%ax
 6df:	90                   	nop

000006e0 <free>:
static Header base;
static Header *freep;

void
free(void *ap)
{
 6e0:	55                   	push   %ebp
  Header *bp, *p;

  bp = (Header*)ap - 1;
  for(p = freep; !(bp > p && bp < p->s.ptr); p = p->s.ptr)
 6e1:	a1 80 0b 00 00       	mov    0xb80,%eax
static Header base;
static Header *freep;

void
free(void *ap)
{
 6e6:	89 e5                	mov    %esp,%ebp
 6e8:	57                   	push   %edi
 6e9:	56                   	push   %esi
 6ea:	53                   	push   %ebx
 6eb:	8b 5d 08             	mov    0x8(%ebp),%ebx
  Header *bp, *p;

  bp = (Header*)ap - 1;
  for(p = freep; !(bp > p && bp < p->s.ptr); p = p->s.ptr)
    if(p >= p->s.ptr && (bp > p || bp < p->s.ptr))
 6ee:	8b 10                	mov    (%eax),%edx
void
free(void *ap)
{
  Header *bp, *p;

  bp = (Header*)ap - 1;
 6f0:	8d 4b f8             	lea    -0x8(%ebx),%ecx
  for(p = freep; !(bp > p && bp < p->s.ptr); p = p->s.ptr)
 6f3:	39 c8                	cmp    %ecx,%eax
 6f5:	73 19                	jae    710 <free+0x30>
 6f7:	89 f6                	mov    %esi,%esi
 6f9:	8d bc 27 00 00 00 00 	lea    0x0(%edi,%eiz,1),%edi
 700:	39 d1                	cmp    %edx,%ecx
 702:	72 1c                	jb     720 <free+0x40>
    if(p >= p->s.ptr && (bp > p || bp < p->s.ptr))
 704:	39 d0                	cmp    %edx,%eax
 706:	73 18                	jae    720 <free+0x40>
static Header base;
static Header *freep;

void
free(void *ap)
{
 708:	89 d0                	mov    %edx,%eax
  Header *bp, *p;

  bp = (Header*)ap - 1;
  for(p = freep; !(bp > p && bp < p->s.ptr); p = p->s.ptr)
 70a:	39 c8                	cmp    %ecx,%eax
    if(p >= p->s.ptr && (bp > p || bp < p->s.ptr))
 70c:	8b 10                	mov    (%eax),%edx
free(void *ap)
{
  Header *bp, *p;

  bp = (Header*)ap - 1;
  for(p = freep; !(bp > p && bp < p->s.ptr); p = p->s.ptr)
 70e:	72 f0                	jb     700 <free+0x20>
    if(p >= p->s.ptr && (bp > p || bp < p->s.ptr))
 710:	39 d0                	cmp    %edx,%eax
 712:	72 f4                	jb     708 <free+0x28>
 714:	39 d1                	cmp    %edx,%ecx
 716:	73 f0                	jae    708 <free+0x28>
 718:	90                   	nop
 719:	8d b4 26 00 00 00 00 	lea    0x0(%esi,%eiz,1),%esi
      break;
  if(bp + bp->s.size == p->s.ptr){
 720:	8b 73 fc             	mov    -0x4(%ebx),%esi
 723:	8d 3c f1             	lea    (%ecx,%esi,8),%edi
 726:	39 d7                	cmp    %edx,%edi
 728:	74 19                	je     743 <free+0x63>
    bp->s.size += p->s.ptr->s.size;
    bp->s.ptr = p->s.ptr->s.ptr;
  } else
    bp->s.ptr = p->s.ptr;
 72a:	89 53 f8             	mov    %edx,-0x8(%ebx)
  if(p + p->s.size == bp){
 72d:	8b 50 04             	mov    0x4(%eax),%edx
 730:	8d 34 d0             	lea    (%eax,%edx,8),%esi
 733:	39 f1                	cmp    %esi,%ecx
 735:	74 23                	je     75a <free+0x7a>
    p->s.size += bp->s.size;
    p->s.ptr = bp->s.ptr;
  } else
    p->s.ptr = bp;
 737:	89 08                	mov    %ecx,(%eax)
  freep = p;
 739:	a3 80 0b 00 00       	mov    %eax,0xb80
}
 73e:	5b                   	pop    %ebx
 73f:	5e                   	pop    %esi
 740:	5f                   	pop    %edi
 741:	5d                   	pop    %ebp
 742:	c3                   	ret    
  bp = (Header*)ap - 1;
  for(p = freep; !(bp > p && bp < p->s.ptr); p = p->s.ptr)
    if(p >= p->s.ptr && (bp > p || bp < p->s.ptr))
      break;
  if(bp + bp->s.size == p->s.ptr){
    bp->s.size += p->s.ptr->s.size;
 743:	03 72 04             	add    0x4(%edx),%esi
 746:	89 73 fc             	mov    %esi,-0x4(%ebx)
    bp->s.ptr = p->s.ptr->s.ptr;
 749:	8b 10                	mov    (%eax),%edx
 74b:	8b 12                	mov    (%edx),%edx
 74d:	89 53 f8             	mov    %edx,-0x8(%ebx)
  } else
    bp->s.ptr = p->s.ptr;
  if(p + p->s.size == bp){
 750:	8b 50 04             	mov    0x4(%eax),%edx
 753:	8d 34 d0             	lea    (%eax,%edx,8),%esi
 756:	39 f1                	cmp    %esi,%ecx
 758:	75 dd                	jne    737 <free+0x57>
    p->s.size += bp->s.size;
 75a:	03 53 fc             	add    -0x4(%ebx),%edx
    p->s.ptr = bp->s.ptr;
  } else
    p->s.ptr = bp;
  freep = p;
 75d:	a3 80 0b 00 00       	mov    %eax,0xb80
    bp->s.size += p->s.ptr->s.size;
    bp->s.ptr = p->s.ptr->s.ptr;
  } else
    bp->s.ptr = p->s.ptr;
  if(p + p->s.size == bp){
    p->s.size += bp->s.size;
 762:	89 50 04             	mov    %edx,0x4(%eax)
    p->s.ptr = bp->s.ptr;
 765:	8b 53 f8             	mov    -0x8(%ebx),%edx
 768:	89 10                	mov    %edx,(%eax)
  } else
    p->s.ptr = bp;
  freep = p;
}
 76a:	5b                   	pop    %ebx
 76b:	5e                   	pop    %esi
 76c:	5f                   	pop    %edi
 76d:	5d                   	pop    %ebp
 76e:	c3                   	ret    
 76f:	90                   	nop

00000770 <malloc>:
  return freep;
}

void*
malloc(uint nbytes)
{
 770:	55                   	push   %ebp
 771:	89 e5                	mov    %esp,%ebp
 773:	57                   	push   %edi
 774:	56                   	push   %esi
 775:	53                   	push   %ebx
 776:	83 ec 0c             	sub    $0xc,%esp
  Header *p, *prevp;
  uint nunits;

  nunits = (nbytes + sizeof(Header) - 1)/sizeof(Header) + 1;
 779:	8b 45 08             	mov    0x8(%ebp),%eax
  if((prevp = freep) == 0){
 77c:	8b 15 80 0b 00 00    	mov    0xb80,%edx
malloc(uint nbytes)
{
  Header *p, *prevp;
  uint nunits;

  nunits = (nbytes + sizeof(Header) - 1)/sizeof(Header) + 1;
 782:	8d 78 07             	lea    0x7(%eax),%edi
 785:	c1 ef 03             	shr    $0x3,%edi
 788:	83 c7 01             	add    $0x1,%edi
  if((prevp = freep) == 0){
 78b:	85 d2                	test   %edx,%edx
 78d:	0f 84 a3 00 00 00    	je     836 <malloc+0xc6>
 793:	8b 02                	mov    (%edx),%eax
 795:	8b 48 04             	mov    0x4(%eax),%ecx
    base.s.ptr = freep = prevp = &base;
    base.s.size = 0;
  }
  for(p = prevp->s.ptr; ; prevp = p, p = p->s.ptr){
    if(p->s.size >= nunits){
 798:	39 cf                	cmp    %ecx,%edi
 79a:	76 74                	jbe    810 <malloc+0xa0>
 79c:	81 ff 00 10 00 00    	cmp    $0x1000,%edi
 7a2:	be 00 10 00 00       	mov    $0x1000,%esi
 7a7:	8d 1c fd 00 00 00 00 	lea    0x0(,%edi,8),%ebx
 7ae:	0f 43 f7             	cmovae %edi,%esi
 7b1:	ba 00 80 00 00       	mov    $0x8000,%edx
 7b6:	81 ff ff 0f 00 00    	cmp    $0xfff,%edi
 7bc:	0f 46 da             	cmovbe %edx,%ebx
 7bf:	eb 10                	jmp    7d1 <malloc+0x61>
 7c1:	8d b4 26 00 00 00 00 	lea    0x0(%esi,%eiz,1),%esi
  nunits = (nbytes + sizeof(Header) - 1)/sizeof(Header) + 1;
  if((prevp = freep) == 0){
    base.s.ptr = freep = prevp = &base;
    base.s.size = 0;
  }
  for(p = prevp->s.ptr; ; prevp = p, p = p->s.ptr){
 7c8:	8b 02                	mov    (%edx),%eax
    if(p->s.size >= nunits){
 7ca:	8b 48 04             	mov    0x4(%eax),%ecx
 7cd:	39 cf                	cmp    %ecx,%edi
 7cf:	76 3f                	jbe    810 <malloc+0xa0>
        p->s.size = nunits;
      }
      freep = prevp;
      return (void*)(p + 1);
    }
    if(p == freep)
 7d1:	39 05 80 0b 00 00    	cmp    %eax,0xb80
 7d7:	89 c2                	mov    %eax,%edx
 7d9:	75 ed                	jne    7c8 <malloc+0x58>
  char *p;
  Header *hp;

  if(nu < 4096)
    nu = 4096;
  p = sbrk(nu * sizeof(Header));
 7db:	83 ec 0c             	sub    $0xc,%esp
 7de:	53                   	push   %ebx
 7df:	e8 86 fc ff ff       	call   46a <sbrk>
  if(p == (char*)-1)
 7e4:	83 c4 10             	add    $0x10,%esp
 7e7:	83 f8 ff             	cmp    $0xffffffff,%eax
 7ea:	74 1c                	je     808 <malloc+0x98>
    return 0;
  hp = (Header*)p;
  hp->s.size = nu;
 7ec:	89 70 04             	mov    %esi,0x4(%eax)
  free((void*)(hp + 1));
 7ef:	83 ec 0c             	sub    $0xc,%esp
 7f2:	83 c0 08             	add    $0x8,%eax
 7f5:	50                   	push   %eax
 7f6:	e8 e5 fe ff ff       	call   6e0 <free>
  return freep;
 7fb:	8b 15 80 0b 00 00    	mov    0xb80,%edx
      }
      freep = prevp;
      return (void*)(p + 1);
    }
    if(p == freep)
      if((p = morecore(nunits)) == 0)
 801:	83 c4 10             	add    $0x10,%esp
 804:	85 d2                	test   %edx,%edx
 806:	75 c0                	jne    7c8 <malloc+0x58>
        return 0;
 808:	31 c0                	xor    %eax,%eax
 80a:	eb 1c                	jmp    828 <malloc+0xb8>
 80c:	8d 74 26 00          	lea    0x0(%esi,%eiz,1),%esi
    base.s.ptr = freep = prevp = &base;
    base.s.size = 0;
  }
  for(p = prevp->s.ptr; ; prevp = p, p = p->s.ptr){
    if(p->s.size >= nunits){
      if(p->s.size == nunits)
 810:	39 cf                	cmp    %ecx,%edi
 812:	74 1c                	je     830 <malloc+0xc0>
        prevp->s.ptr = p->s.ptr;
      else {
        p->s.size -= nunits;
 814:	29 f9                	sub    %edi,%ecx
 816:	89 48 04             	mov    %ecx,0x4(%eax)
        p += p->s.size;
 819:	8d 04 c8             	lea    (%eax,%ecx,8),%eax
        p->s.size = nunits;
 81c:	89 78 04             	mov    %edi,0x4(%eax)
      }
      freep = prevp;
 81f:	89 15 80 0b 00 00    	mov    %edx,0xb80
      return (void*)(p + 1);
 825:	83 c0 08             	add    $0x8,%eax
    }
    if(p == freep)
      if((p = morecore(nunits)) == 0)
        return 0;
  }
}
 828:	8d 65 f4             	lea    -0xc(%ebp),%esp
 82b:	5b                   	pop    %ebx
 82c:	5e                   	pop    %esi
 82d:	5f                   	pop    %edi
 82e:	5d                   	pop    %ebp
 82f:	c3                   	ret    
    base.s.size = 0;
  }
  for(p = prevp->s.ptr; ; prevp = p, p = p->s.ptr){
    if(p->s.size >= nunits){
      if(p->s.size == nunits)
        prevp->s.ptr = p->s.ptr;
 830:	8b 08                	mov    (%eax),%ecx
 832:	89 0a                	mov    %ecx,(%edx)
 834:	eb e9                	jmp    81f <malloc+0xaf>
  Header *p, *prevp;
  uint nunits;

  nunits = (nbytes + sizeof(Header) - 1)/sizeof(Header) + 1;
  if((prevp = freep) == 0){
    base.s.ptr = freep = prevp = &base;
 836:	c7 05 80 0b 00 00 84 	movl   $0xb84,0xb80
 83d:	0b 00 00 
 840:	c7 05 84 0b 00 00 84 	movl   $0xb84,0xb84
 847:	0b 00 00 
    base.s.size = 0;
 84a:	b8 84 0b 00 00       	mov    $0xb84,%eax
 84f:	c7 05 88 0b 00 00 00 	movl   $0x0,0xb88
 856:	00 00 00 
 859:	e9 3e ff ff ff       	jmp    79c <malloc+0x2c>
